; Function Attrs: mustprogress uwtable
define hidden noundef i32 @_ZN19OpenColorIO_v2_4dev9CDLOpData12ConvertStyleENS0_5StyleE(i32 noundef %style) local_unnamed_addr #3 align 2 personality ptr @__gxx_personality_v0 {
entry:
  %ss = alloca %"class.std::__cxx11::basic_stringstream", align 8
  %ref.tmp = alloca %"class.std::__cxx11::basic_string", align 8
  %ref.tmp2 = alloca %"class.std::allocator", align 1
  %ref.tmp9 = alloca %"class.std::__cxx11::basic_string", align 8
  %0 = icmp ult i32 %style, 4
  br i1 %0, label %switch.lookup, label %sw.epilog

sw.epilog:                                        ; preds = %entry
  call void @_ZNSaIcEC1Ev(ptr noundef nonnull align 1 dereferenceable(1) %ref.tmp2) #19
  invoke void @_ZNSt7__cxx1112basic_stringIcSt11char_traitsIcESaIcEEC1EPKcRKS3_(ptr noundef nonnull align 8 dereferenceable(32) %ref.tmp, ptr noundef nonnull @.str.4, ptr noundef nonnull align 1 dereferenceable(1) %ref.tmp2)
          to label %invoke.cont unwind label %lpad

invoke.cont:                                      ; preds = %sw.epilog
  invoke void @_ZNSt7__cxx1118basic_stringstreamIcSt11char_traitsIcESaIcEEC1ERKNS_12basic_stringIcS2_S3_EESt13_Ios_Openmode(ptr noundef nonnull align 8 dereferenceable(128) %ss, ptr noundef nonnull align 8 dereferenceable(32) %ref.tmp, i32 noundef 24)
          to label %invoke.cont5 unwind label %lpad3

invoke.cont5:                                     ; preds = %invoke.cont
  call void @_ZNSt7__cxx1112basic_stringIcSt11char_traitsIcESaIcEED1Ev(ptr noundef nonnull align 8 dereferenceable(32) %ref.tmp) #19
  call void @_ZNSaIcED1Ev(ptr noundef nonnull align 1 dereferenceable(1) %ref.tmp2) #19
  %add.ptr = getelementptr inbounds i8, ptr %ss, i64 16
  %call8 = invoke noundef nonnull align 8 dereferenceable(8) ptr @_ZNSolsEi(ptr noundef nonnull align 8 dereferenceable(8) %add.ptr, i32 noundef %style)
          to label %invoke.cont7 unwind label %lpad6

invoke.cont7:                                     ; preds = %invoke.cont5
  %exception = call ptr @__cxa_allocate_exception(i64 16) #19
  invoke void @_ZNKSt7__cxx1118basic_stringstreamIcSt11char_traitsIcESaIcEE3strEv(ptr nonnull sret(%"class.std::__cxx11::basic_string") align 8 %ref.tmp9, ptr noundef nonnull align 8 dereferenceable(128) %ss)
          to label %invoke.cont11 unwind label %ehcleanup16.thread

invoke.cont11:                                    ; preds = %invoke.cont7
  %call12 = call noundef ptr @_ZNKSt7__cxx1112basic_stringIcSt11char_traitsIcESaIcEE5c_strEv(ptr noundef nonnull align 8 dereferenceable(32) %ref.tmp9) #19
  invoke void @_ZN19OpenColorIO_v2_4dev9ExceptionC1EPKc(ptr noundef nonnull align 8 dereferenceable(16) %exception, ptr noundef %call12)
          to label %invoke.cont14 unwind label %ehcleanup16.thread10

ehcleanup16.thread10:                             ; preds = %invoke.cont11
  %1 = landingpad { ptr, i32 }
          cleanup
  call void @_ZNSt7__cxx1112basic_stringIcSt11char_traitsIcESaIcEED1Ev(ptr noundef nonnull align 8 dereferenceable(32) %ref.tmp9) #19
  br label %cleanup.action

invoke.cont14:                                    ; preds = %invoke.cont11
  invoke void @__cxa_throw(ptr nonnull %exception, ptr nonnull @_ZTIN19OpenColorIO_v2_4dev9ExceptionE, ptr nonnull @_ZN19OpenColorIO_v2_4dev9ExceptionD1Ev) #20
          to label %unreachable unwind label %ehcleanup16

lpad:                                             ; preds = %sw.epilog
  %2 = landingpad { ptr, i32 }
          cleanup
  br label %ehcleanup

lpad3:                                            ; preds = %invoke.cont
  %3 = landingpad { ptr, i32 }
          cleanup
  call void @_ZNSt7__cxx1112basic_stringIcSt11char_traitsIcESaIcEED1Ev(ptr noundef nonnull align 8 dereferenceable(32) %ref.tmp) #19
  br label %ehcleanup

ehcleanup:                                        ; preds = %lpad3, %lpad
  %.pn = phi { ptr, i32 } [ %3, %lpad3 ], [ %2, %lpad ]
  call void @_ZNSaIcED1Ev(ptr noundef nonnull align 1 dereferenceable(1) %ref.tmp2) #19
  br label %eh.resume

lpad6:                                            ; preds = %invoke.cont5
  %4 = landingpad { ptr, i32 }
          cleanup
  br label %ehcleanup17

ehcleanup16.thread:                               ; preds = %invoke.cont7
  %5 = landingpad { ptr, i32 }
          cleanup
  br label %cleanup.action

ehcleanup16:                                      ; preds = %invoke.cont14
  %6 = landingpad { ptr, i32 }
          cleanup
  call void @_ZNSt7__cxx1112basic_stringIcSt11char_traitsIcESaIcEED1Ev(ptr noundef nonnull align 8 dereferenceable(32) %ref.tmp9) #19
  br label %ehcleanup17

cleanup.action:                                   ; preds = %ehcleanup16.thread10, %ehcleanup16.thread
  %.pn39 = phi { ptr, i32 } [ %5, %ehcleanup16.thread ], [ %1, %ehcleanup16.thread10 ]
  call void @__cxa_free_exception(ptr %exception) #19
  br label %ehcleanup17

ehcleanup17:                                      ; preds = %ehcleanup16, %cleanup.action, %lpad6
  %.pn3.pn = phi { ptr, i32 } [ %.pn39, %cleanup.action ], [ %6, %ehcleanup16 ], [ %4, %lpad6 ]
  call void @_ZNSt7__cxx1118basic_stringstreamIcSt11char_traitsIcESaIcEED1Ev(ptr noundef nonnull align 8 dereferenceable(128) %ss) #19
  br label %eh.resume

switch.lookup:                                    ; preds = %entry
  %7 = zext nneg i32 %style to i64
  %switch.gep = getelementptr inbounds [4 x i32], ptr @switch.table._ZN19OpenColorIO_v2_4dev9CDLOpData12ConvertStyleENS0_5StyleE, i64 0, i64 %7
  %switch.load = load i32, ptr %switch.gep, align 4
  ret i32 %switch.load

eh.resume:                                        ; preds = %ehcleanup17, %ehcleanup
  %.pn3.pn.pn = phi { ptr, i32 } [ %.pn3.pn, %ehcleanup17 ], [ %.pn, %ehcleanup ]
  resume { ptr, i32 } %.pn3.pn.pn

unreachable:                                      ; preds = %invoke.cont14
  unreachable
}